; Function Attrs: nounwind uwtable
define hidden void @zif_xmlwriter_start_dtd_entity(ptr noundef %0, ptr nocapture noundef writeonly %1) #0 {
  %3 = alloca ptr, align 8
  %4 = alloca i64, align 8
  %5 = alloca i8, align 1
  %6 = alloca ptr, align 8
  %7 = getelementptr inbounds i8, ptr %0, i64 32
  %8 = getelementptr inbounds i8, ptr %0, i64 44
  %9 = load i32, ptr %8, align 4
  %10 = getelementptr inbounds i8, ptr %0, i64 40
  %11 = load i8, ptr %10, align 8
  %12 = icmp eq i8 %11, 8
  %13 = select i1 %12, ptr %7, ptr null
  %14 = load ptr, ptr @xmlwriter_class_entry_ce, align 8
  %15 = call i32 (i32, ptr, ptr, ...) @zend_parse_method_parameters(i32 noundef %9, ptr noundef %13, ptr noundef nonnull @.str.18, ptr noundef nonnull %6, ptr noundef %14, ptr noundef nonnull %3, ptr noundef nonnull %4, ptr noundef nonnull %5) #11
  %16 = icmp eq i32 %15, -1
  br i1 %16, label %17, label %20

17:                                               ; preds = %2
  %18 = load ptr, ptr getelementptr inbounds (%struct._zend_executor_globals, ptr @executor_globals, i64 0, i32 50), align 8
  %19 = icmp ne ptr %18, null
  call void @llvm.assume(i1 %19)
  br label %43

20:                                               ; preds = %2
  %21 = load ptr, ptr %6, align 8
  %22 = load ptr, ptr %21, align 8
  %23 = getelementptr inbounds i8, ptr %22, i64 -16
  %24 = load ptr, ptr %23, align 8
  %.not = icmp eq ptr %24, null
  br i1 %.not, label %25, label %28

25:                                               ; preds = %20
  call void (ptr, ptr, ...) @zend_throw_error(ptr noundef null, ptr noundef nonnull @.str.4) #11
  %26 = load ptr, ptr getelementptr inbounds (%struct._zend_executor_globals, ptr @executor_globals, i64 0, i32 50), align 8
  %27 = icmp ne ptr %26, null
  call void @llvm.assume(i1 %27)
  br label %43

28:                                               ; preds = %20
  %29 = load ptr, ptr %3, align 8
  %30 = call i32 @xmlValidateName(ptr noundef %29, i32 noundef 0) #11
  %.not8 = icmp eq i32 %30, 0
  br i1 %.not8, label %35, label %31

31:                                               ; preds = %28
  %32 = load ptr, ptr %3, align 8
  call void (i32, ptr, ...) @zend_argument_value_error(i32 noundef 2, ptr noundef nonnull @.str.7, ptr noundef nonnull @.str.5, ptr noundef %32) #11
  %33 = load ptr, ptr getelementptr inbounds (%struct._zend_executor_globals, ptr @executor_globals, i64 0, i32 50), align 8
  %34 = icmp ne ptr %33, null
  call void @llvm.assume(i1 %34)
  br label %43

35:                                               ; preds = %28
  %36 = load i8, ptr %5, align 1
  %37 = and i8 %36, 1
  %38 = zext nneg i8 %37 to i32
  %39 = load ptr, ptr %3, align 8
  %40 = call i32 @xmlTextWriterStartDTDEntity(ptr noundef nonnull %24, i32 noundef %38, ptr noundef %39) #11
  %.not9 = icmp eq i32 %40, -1
  %41 = select i1 %.not9, i32 2, i32 3
  %42 = getelementptr inbounds i8, ptr %1, i64 8
  store i32 %41, ptr %42, align 8
  br label %43

43:                                               ; preds = %35, %31, %25, %17
  ret void
}